target datalayout = "e-m:e-p270:32:32-p271:32:32-p272:64:64-i64:64-i128:128-f80:128-n8:16:32:64-S128"
target triple = "x86_64-pc-linux-gnu"

@.str.2 = private unnamed_addr constant [32 x i8] c"../openssl/crypto/x509/x_name.c\00", align 1
@.str.3 = private unnamed_addr constant [3 x i8] c", \00", align 1
@__func__.X509_NAME_print = private unnamed_addr constant [16 x i8] c"X509_NAME_print\00", align 1

; Function Attrs: nounwind uwtable
define i32 @X509_NAME_print(ptr noundef %0, ptr noundef %1, i32 noundef %2) #0 {
  %4 = alloca i32, align 4
  %5 = alloca ptr, align 8
  %6 = alloca ptr, align 8
  %7 = alloca i32, align 4
  %8 = alloca ptr, align 8
  %9 = alloca ptr, align 8
  %10 = alloca ptr, align 8
  %11 = alloca i32, align 4
  %12 = alloca i32, align 4
  store ptr %0, ptr %5, align 8, !tbaa !18
  store ptr %1, ptr %6, align 8, !tbaa !16
  store i32 %2, ptr %7, align 4, !tbaa !20
  call void @llvm.lifetime.start.p0(i64 8, ptr %8) #6
  call void @llvm.lifetime.start.p0(i64 8, ptr %9) #6
  call void @llvm.lifetime.start.p0(i64 8, ptr %10) #6
  call void @llvm.lifetime.start.p0(i64 4, ptr %11) #6
  %13 = load ptr, ptr %6, align 8, !tbaa !16
  %14 = call ptr @X509_NAME_oneline(ptr noundef %13, ptr noundef null, i32 noundef 0)
  store ptr %14, ptr %10, align 8, !tbaa !22
  %15 = load ptr, ptr %10, align 8, !tbaa !22
  %16 = icmp eq ptr %15, null
  br i1 %16, label %17, label %18

17:                                               ; preds = %3
  store i32 0, ptr %4, align 4
  store i32 1, ptr %12, align 4
  br label %106

18:                                               ; preds = %3
  %19 = load ptr, ptr %10, align 8, !tbaa !22
  %20 = load i8, ptr %19, align 1, !tbaa !24
  %21 = sext i8 %20 to i32
  %22 = icmp eq i32 %21, 0
  br i1 %22, label %23, label %25

23:                                               ; preds = %18
  %24 = load ptr, ptr %10, align 8, !tbaa !22
  call void @CRYPTO_free(ptr noundef %24, ptr noundef @.str.2, i32 noundef 512)
  store i32 1, ptr %4, align 4
  store i32 1, ptr %12, align 4
  br label %106

25:                                               ; preds = %18
  %26 = load ptr, ptr %10, align 8, !tbaa !22
  %27 = getelementptr inbounds i8, ptr %26, i64 1
  store ptr %27, ptr %8, align 8, !tbaa !22
  %28 = load ptr, ptr %8, align 8, !tbaa !22
  store ptr %28, ptr %9, align 8, !tbaa !22
  br label %29

29:                                               ; preds = %99, %25
  %30 = load ptr, ptr %8, align 8, !tbaa !22
  %31 = load i8, ptr %30, align 1, !tbaa !24
  %32 = sext i8 %31 to i32
  %33 = icmp eq i32 %32, 47
  br i1 %33, label %34, label %60

34:                                               ; preds = %29
  %35 = load ptr, ptr %8, align 8, !tbaa !22
  %36 = getelementptr inbounds i8, ptr %35, i64 1
  %37 = load i8, ptr %36, align 1, !tbaa !24
  %38 = sext i8 %37 to i32
  %39 = call i32 @ossl_isupper(i32 noundef %38)
  %40 = icmp ne i32 %39, 0
  br i1 %40, label %41, label %60

41:                                               ; preds = %34
  %42 = load ptr, ptr %8, align 8, !tbaa !22
  %43 = getelementptr inbounds i8, ptr %42, i64 2
  %44 = load i8, ptr %43, align 1, !tbaa !24
  %45 = sext i8 %44 to i32
  %46 = icmp eq i32 %45, 61
  br i1 %46, label %65, label %47

47:                                               ; preds = %41
  %48 = load ptr, ptr %8, align 8, !tbaa !22
  %49 = getelementptr inbounds i8, ptr %48, i64 2
  %50 = load i8, ptr %49, align 1, !tbaa !24
  %51 = sext i8 %50 to i32
  %52 = call i32 @ossl_isupper(i32 noundef %51)
  %53 = icmp ne i32 %52, 0
  br i1 %53, label %54, label %60

54:                                               ; preds = %47
  %55 = load ptr, ptr %8, align 8, !tbaa !22
  %56 = getelementptr inbounds i8, ptr %55, i64 3
  %57 = load i8, ptr %56, align 1, !tbaa !24
  %58 = sext i8 %57 to i32
  %59 = icmp eq i32 %58, 61
  br i1 %59, label %65, label %60

60:                                               ; preds = %54, %47, %34, %29
  %61 = load ptr, ptr %8, align 8, !tbaa !22
  %62 = load i8, ptr %61, align 1, !tbaa !24
  %63 = sext i8 %62 to i32
  %64 = icmp eq i32 %63, 0
  br i1 %64, label %65, label %93

65:                                               ; preds = %60, %54, %41
  %66 = load ptr, ptr %8, align 8, !tbaa !22
  %67 = load ptr, ptr %9, align 8, !tbaa !22
  %68 = ptrtoint ptr %66 to i64
  %69 = ptrtoint ptr %67 to i64
  %70 = sub i64 %68, %69
  %71 = trunc i64 %70 to i32
  store i32 %71, ptr %11, align 4, !tbaa !20
  %72 = load ptr, ptr %5, align 8, !tbaa !18
  %73 = load ptr, ptr %9, align 8, !tbaa !22
  %74 = load i32, ptr %11, align 4, !tbaa !20
  %75 = call i32 @BIO_write(ptr noundef %72, ptr noundef %73, i32 noundef %74)
  %76 = load i32, ptr %11, align 4, !tbaa !20
  %77 = icmp ne i32 %75, %76
  br i1 %77, label %78, label %79

78:                                               ; preds = %65
  br label %104

79:                                               ; preds = %65
  %80 = load ptr, ptr %8, align 8, !tbaa !22
  %81 = getelementptr inbounds i8, ptr %80, i64 1
  store ptr %81, ptr %9, align 8, !tbaa !22
  %82 = load ptr, ptr %8, align 8, !tbaa !22
  %83 = load i8, ptr %82, align 1, !tbaa !24
  %84 = sext i8 %83 to i32
  %85 = icmp ne i32 %84, 0
  br i1 %85, label %86, label %92

86:                                               ; preds = %79
  %87 = load ptr, ptr %5, align 8, !tbaa !18
  %88 = call i32 @BIO_write(ptr noundef %87, ptr noundef @.str.3, i32 noundef 2)
  %89 = icmp ne i32 %88, 2
  br i1 %89, label %90, label %91

90:                                               ; preds = %86
  br label %104

91:                                               ; preds = %86
  br label %92

92:                                               ; preds = %91, %79
  br label %93

93:                                               ; preds = %92, %60
  %94 = load ptr, ptr %8, align 8, !tbaa !22
  %95 = load i8, ptr %94, align 1, !tbaa !24
  %96 = sext i8 %95 to i32
  %97 = icmp eq i32 %96, 0
  br i1 %97, label %98, label %99

98:                                               ; preds = %93
  br label %102

99:                                               ; preds = %93
  %100 = load ptr, ptr %8, align 8, !tbaa !22
  %101 = getelementptr inbounds nuw i8, ptr %100, i32 1
  store ptr %101, ptr %8, align 8, !tbaa !22
  br label %29

102:                                              ; preds = %98
  %103 = load ptr, ptr %10, align 8, !tbaa !22
  call void @CRYPTO_free(ptr noundef %103, ptr noundef @.str.2, i32 noundef 538)
  store i32 1, ptr %4, align 4
  store i32 1, ptr %12, align 4
  br label %106

104:                                              ; preds = %90, %78
  call void @ERR_new()
  call void @ERR_set_debug(ptr noundef @.str.2, i32 noundef 541, ptr noundef @__func__.X509_NAME_print)
  call void (i32, i32, ptr, ...) @ERR_set_error(i32 noundef 11, i32 noundef 524295, ptr noundef null)
  %105 = load ptr, ptr %10, align 8, !tbaa !22
  call void @CRYPTO_free(ptr noundef %105, ptr noundef @.str.2, i32 noundef 542)
  store i32 0, ptr %4, align 4
  store i32 1, ptr %12, align 4
  br label %106

106:                                              ; preds = %104, %102, %23, %17
  call void @llvm.lifetime.end.p0(i64 4, ptr %11) #6
  call void @llvm.lifetime.end.p0(i64 8, ptr %10) #6
  call void @llvm.lifetime.end.p0(i64 8, ptr %9) #6
  call void @llvm.lifetime.end.p0(i64 8, ptr %8) #6
  %107 = load i32, ptr %4, align 4
  ret i32 %107
}