; Function Attrs: nounwind uwtable
define range(i32 0, 2) i32 @X509_NAME_print(ptr noundef %0, ptr noundef %1, i32 noundef %2) local_unnamed_addr #1 {
  %4 = tail call ptr @X509_NAME_oneline(ptr noundef %1, ptr noundef null, i32 noundef 0) #6
  %5 = icmp eq ptr %4, null
  br i1 %5, label %49, label %6

6:                                                ; preds = %3
  %7 = load i8, ptr %4, align 1, !tbaa !8
  %8 = icmp eq i8 %7, 0
  br i1 %8, label %.sink.split, label %9

9:                                                ; preds = %6
  %10 = getelementptr inbounds nuw i8, ptr %4, i64 1
  br label %.outer

.outer:                                           ; preds = %._crit_edge, %9
  %.026.ph = phi ptr [ %43, %._crit_edge ], [ %10, %9 ]
  %.025.ph = phi ptr [ %45, %._crit_edge ], [ %10, %9 ]
  br label %11

11:                                               ; preds = %.outer, %46
  %.025 = phi ptr [ %47, %46 ], [ %.025.ph, %.outer ]
  %12 = load i8, ptr %.025, align 1, !tbaa !8
  %13 = icmp eq i8 %12, 47
  br i1 %13, label %14, label %30

14:                                               ; preds = %11
  %15 = getelementptr inbounds nuw i8, ptr %.025, i64 1
  %16 = load i8, ptr %15, align 1, !tbaa !8
  %17 = sext i8 %16 to i32
  %18 = tail call i32 @ossl_isupper(i32 noundef %17) #6
  %.not = icmp eq i32 %18, 0
  br i1 %.not, label %thread-pre-split, label %19

19:                                               ; preds = %14
  %20 = getelementptr inbounds nuw i8, ptr %.025, i64 2
  %21 = load i8, ptr %20, align 1, !tbaa !8
  %22 = icmp eq i8 %21, 61
  br i1 %22, label %33, label %23

23:                                               ; preds = %19
  %24 = sext i8 %21 to i32
  %25 = tail call i32 @ossl_isupper(i32 noundef %24) #6
  %.not29 = icmp eq i32 %25, 0
  br i1 %.not29, label %thread-pre-split, label %26

26:                                               ; preds = %23
  %27 = getelementptr inbounds nuw i8, ptr %.025, i64 3
  %28 = load i8, ptr %27, align 1, !tbaa !8
  %29 = icmp eq i8 %28, 61
  br i1 %29, label %33, label %thread-pre-split

thread-pre-split:                                 ; preds = %14, %23, %26
  %.pr = load i8, ptr %.025, align 1, !tbaa !8
  br label %30

30:                                               ; preds = %thread-pre-split, %11
  %31 = phi i8 [ %.pr, %thread-pre-split ], [ %12, %11 ]
  %32 = icmp eq i8 %31, 0
  br i1 %32, label %33, label %46

33:                                               ; preds = %30, %26, %19
  %34 = ptrtoint ptr %.025 to i64
  %35 = ptrtoint ptr %.026.ph to i64
  %36 = sub i64 %34, %35
  %37 = trunc i64 %36 to i32
  %38 = tail call i32 @BIO_write(ptr noundef %0, ptr noundef nonnull %.026.ph, i32 noundef %37) #6
  %.not30 = icmp eq i32 %38, %37
  br i1 %.not30, label %39, label %48

39:                                               ; preds = %33
  %40 = load i8, ptr %.025, align 1, !tbaa !8
  %.not31 = icmp eq i8 %40, 0
  br i1 %.not31, label %.sink.split, label %41

41:                                               ; preds = %39
  %42 = tail call i32 @BIO_write(ptr noundef %0, ptr noundef nonnull @.str.3, i32 noundef 2) #6
  %.not32 = icmp eq i32 %42, 2
  br i1 %.not32, label %._crit_edge, label %48

._crit_edge:                                      ; preds = %41
  %43 = getelementptr inbounds nuw i8, ptr %.025, i64 1
  %.pr34.pre = load i8, ptr %.025, align 1, !tbaa !8
  %44 = icmp eq i8 %.pr34.pre, 0
  %45 = getelementptr inbounds nuw i8, ptr %.025, i64 1
  br i1 %44, label %.sink.split, label %.outer

46:                                               ; preds = %30
  %47 = getelementptr inbounds nuw i8, ptr %.025, i64 1
  br label %11

48:                                               ; preds = %41, %33
  tail call void @ERR_new() #6
  tail call void @ERR_set_debug(ptr noundef nonnull @.str.2, i32 noundef 541, ptr noundef nonnull @__func__.X509_NAME_print) #6
  tail call void (i32, i32, ptr, ...) @ERR_set_error(i32 noundef 11, i32 noundef 524295, ptr noundef null) #6
  br label %.sink.split

.sink.split:                                      ; preds = %39, %._crit_edge, %6, %48
  %.sink = phi i32 [ 542, %48 ], [ 512, %6 ], [ 538, %._crit_edge ], [ 538, %39 ]
  %.0.ph = phi i32 [ 0, %48 ], [ 1, %6 ], [ 1, %._crit_edge ], [ 1, %39 ]
  tail call void @CRYPTO_free(ptr noundef nonnull %4, ptr noundef nonnull @.str.2, i32 noundef %.sink) #6
  br label %49

49:                                               ; preds = %.sink.split, %3
  %.0 = phi i32 [ 0, %3 ], [ %.0.ph, %.sink.split ]
  ret i32 %.0
}